; ModuleID = '51/514.c'
source_filename = "51/514.c"
target datalayout = "e-m:e-p270:32:32-p271:32:32-p272:64:64-i64:64-f80:128-n8:16:32:64-S128"
target triple = "x86_64-pc-linux-gnu"

@.str = private unnamed_addr constant [3 x i8] c"%d\00", align 1
@.str.1 = private unnamed_addr constant [3 x i8] c"%s\00", align 1
@.str.2 = private unnamed_addr constant [3 x i8] c"NO\00", align 1
@.str.3 = private unnamed_addr constant [4 x i8] c"%d\0A\00", align 1
@.str.4 = private unnamed_addr constant [4 x i8] c"%s\0A\00", align 1

; Function Attrs: noinline nounwind uwtable
define dso_local i32 @main() #0 {
  %1 = alloca i32, align 4
  %2 = alloca i32, align 4
  %3 = alloca i32, align 4
  %4 = alloca i32, align 4
  %5 = alloca i32, align 4
  %6 = alloca i32, align 4
  %7 = alloca [600 x i32], align 16
  %8 = alloca i32, align 4
  %9 = alloca i32, align 4
  %10 = alloca i32, align 4
  %11 = alloca [600 x i8], align 16
  %12 = alloca [600 x [5 x i8]], align 16
  store i32 0, i32* %1, align 4
  %13 = bitcast [600 x i32]* %7 to i8*
  call void @llvm.memset.p0i8.i64(i8* align 16 %13, i8 0, i64 2400, i1 false)
  store i32 0, i32* %9, align 4
  store i32 0, i32* %10, align 4
  %14 = call i32 (i8*, ...) @__isoc99_scanf(i8* getelementptr inbounds ([3 x i8], [3 x i8]* @.str, i64 0, i64 0), i32* %2)
  %15 = getelementptr inbounds [600 x i8], [600 x i8]* %11, i64 0, i64 0
  %16 = call i32 (i8*, ...) @__isoc99_scanf(i8* getelementptr inbounds ([3 x i8], [3 x i8]* @.str.1, i64 0, i64 0), i8* %15)
  %17 = getelementptr inbounds [600 x i8], [600 x i8]* %11, i64 0, i64 0
  %18 = call i64 @strlen(i8* %17) #4
  %19 = trunc i64 %18 to i32
  store i32 %19, i32* %4, align 4
  store i32 0, i32* %3, align 4
  br label %20

20:                                               ; preds = %54, %0
  %21 = load i32, i32* %3, align 4
  %22 = load i32, i32* %4, align 4
  %23 = load i32, i32* %2, align 4
  %24 = sub nsw i32 %22, %23
  %25 = icmp sle i32 %21, %24
  br i1 %25, label %26, label %57

26:                                               ; preds = %20
  store i32 0, i32* %5, align 4
  br label %27

27:                                               ; preds = %44, %26
  %28 = load i32, i32* %5, align 4
  %29 = load i32, i32* %2, align 4
  %30 = icmp slt i32 %28, %29
  br i1 %30, label %31, label %47

31:                                               ; preds = %27
  %32 = load i32, i32* %3, align 4
  %33 = load i32, i32* %5, align 4
  %34 = add nsw i32 %32, %33
  %35 = sext i32 %34 to i64
  %36 = getelementptr inbounds [600 x i8], [600 x i8]* %11, i64 0, i64 %35
  %37 = load i8, i8* %36, align 1
  %38 = load i32, i32* %3, align 4
  %39 = sext i32 %38 to i64
  %40 = getelementptr inbounds [600 x [5 x i8]], [600 x [5 x i8]]* %12, i64 0, i64 %39
  %41 = load i32, i32* %5, align 4
  %42 = sext i32 %41 to i64
  %43 = getelementptr inbounds [5 x i8], [5 x i8]* %40, i64 0, i64 %42
  store i8 %37, i8* %43, align 1
  br label %44

44:                                               ; preds = %31
  %45 = load i32, i32* %5, align 4
  %46 = add nsw i32 %45, 1
  store i32 %46, i32* %5, align 4
  br label %27

47:                                               ; preds = %27
  %48 = load i32, i32* %3, align 4
  %49 = sext i32 %48 to i64
  %50 = getelementptr inbounds [600 x [5 x i8]], [600 x [5 x i8]]* %12, i64 0, i64 %49
  %51 = load i32, i32* %2, align 4
  %52 = sext i32 %51 to i64
  %53 = getelementptr inbounds [5 x i8], [5 x i8]* %50, i64 0, i64 %52
  store i8 0, i8* %53, align 1
  br label %54

54:                                               ; preds = %47
  %55 = load i32, i32* %3, align 4
  %56 = add nsw i32 %55, 1
  store i32 %56, i32* %3, align 4
  br label %20

57:                                               ; preds = %20
  store i32 0, i32* %3, align 4
  br label %58

58:                                               ; preds = %96, %57
  %59 = load i32, i32* %3, align 4
  %60 = load i32, i32* %4, align 4
  %61 = load i32, i32* %2, align 4
  %62 = sub nsw i32 %60, %61
  %63 = icmp sle i32 %59, %62
  br i1 %63, label %64, label %99

64:                                               ; preds = %58
  %65 = load i32, i32* %3, align 4
  %66 = add nsw i32 %65, 1
  store i32 %66, i32* %5, align 4
  br label %67

67:                                               ; preds = %92, %64
  %68 = load i32, i32* %5, align 4
  %69 = load i32, i32* %4, align 4
  %70 = load i32, i32* %2, align 4
  %71 = sub nsw i32 %69, %70
  %72 = icmp sle i32 %68, %71
  br i1 %72, label %73, label %95

73:                                               ; preds = %67
  %74 = load i32, i32* %3, align 4
  %75 = sext i32 %74 to i64
  %76 = getelementptr inbounds [600 x [5 x i8]], [600 x [5 x i8]]* %12, i64 0, i64 %75
  %77 = getelementptr inbounds [5 x i8], [5 x i8]* %76, i64 0, i64 0
  %78 = load i32, i32* %5, align 4
  %79 = sext i32 %78 to i64
  %80 = getelementptr inbounds [600 x [5 x i8]], [600 x [5 x i8]]* %12, i64 0, i64 %79
  %81 = getelementptr inbounds [5 x i8], [5 x i8]* %80, i64 0, i64 0
  %82 = call i32 @strcmp(i8* %77, i8* %81) #4
  store i32 %82, i32* %6, align 4
  %83 = load i32, i32* %6, align 4
  %84 = icmp eq i32 %83, 0
  br i1 %84, label %85, label %91

85:                                               ; preds = %73
  %86 = load i32, i32* %3, align 4
  %87 = sext i32 %86 to i64
  %88 = getelementptr inbounds [600 x i32], [600 x i32]* %7, i64 0, i64 %87
  %89 = load i32, i32* %88, align 4
  %90 = add nsw i32 %89, 1
  store i32 %90, i32* %88, align 4
  br label %91

91:                                               ; preds = %85, %73
  br label %92

92:                                               ; preds = %91
  %93 = load i32, i32* %5, align 4
  %94 = add nsw i32 %93, 1
  store i32 %94, i32* %5, align 4
  br label %67

95:                                               ; preds = %67
  br label %96

96:                                               ; preds = %95
  %97 = load i32, i32* %3, align 4
  %98 = add nsw i32 %97, 1
  store i32 %98, i32* %3, align 4
  br label %58

99:                                               ; preds = %58
  %100 = getelementptr inbounds [600 x i32], [600 x i32]* %7, i64 0, i64 0
  %101 = load i32, i32* %100, align 16
  store i32 %101, i32* %8, align 4
  store i32 0, i32* %3, align 4
  br label %102

102:                                              ; preds = %121, %99
  %103 = load i32, i32* %3, align 4
  %104 = load i32, i32* %4, align 4
  %105 = load i32, i32* %2, align 4
  %106 = sub nsw i32 %104, %105
  %107 = icmp sle i32 %103, %106
  br i1 %107, label %108, label %124

108:                                              ; preds = %102
  %109 = load i32, i32* %3, align 4
  %110 = sext i32 %109 to i64
  %111 = getelementptr inbounds [600 x i32], [600 x i32]* %7, i64 0, i64 %110
  %112 = load i32, i32* %111, align 4
  %113 = load i32, i32* %8, align 4
  %114 = icmp sgt i32 %112, %113
  br i1 %114, label %115, label %120

115:                                              ; preds = %108
  %116 = load i32, i32* %3, align 4
  %117 = sext i32 %116 to i64
  %118 = getelementptr inbounds [600 x i32], [600 x i32]* %7, i64 0, i64 %117
  %119 = load i32, i32* %118, align 4
  store i32 %119, i32* %8, align 4
  br label %120

120:                                              ; preds = %115, %108
  br label %121

121:                                              ; preds = %120
  %122 = load i32, i32* %3, align 4
  %123 = add nsw i32 %122, 1
  store i32 %123, i32* %3, align 4
  br label %102

124:                                              ; preds = %102
  %125 = load i32, i32* %8, align 4
  %126 = icmp eq i32 %125, 0
  br i1 %126, label %127, label %129

127:                                              ; preds = %124
  %128 = call i32 (i8*, ...) @printf(i8* getelementptr inbounds ([3 x i8], [3 x i8]* @.str.2, i64 0, i64 0))
  br label %157

129:                                              ; preds = %124
  %130 = load i32, i32* %8, align 4
  %131 = add nsw i32 %130, 1
  %132 = call i32 (i8*, ...) @printf(i8* getelementptr inbounds ([4 x i8], [4 x i8]* @.str.3, i64 0, i64 0), i32 %131)
  store i32 0, i32* %3, align 4
  br label %133

133:                                              ; preds = %153, %129
  %134 = load i32, i32* %3, align 4
  %135 = load i32, i32* %4, align 4
  %136 = load i32, i32* %2, align 4
  %137 = sub nsw i32 %135, %136
  %138 = icmp sle i32 %134, %137
  br i1 %138, label %139, label %156

139:                                              ; preds = %133
  %140 = load i32, i32* %3, align 4
  %141 = sext i32 %140 to i64
  %142 = getelementptr inbounds [600 x i32], [600 x i32]* %7, i64 0, i64 %141
  %143 = load i32, i32* %142, align 4
  %144 = load i32, i32* %8, align 4
  %145 = icmp eq i32 %143, %144
  br i1 %145, label %146, label %152

146:                                              ; preds = %139
  %147 = load i32, i32* %3, align 4
  %148 = sext i32 %147 to i64
  %149 = getelementptr inbounds [600 x [5 x i8]], [600 x [5 x i8]]* %12, i64 0, i64 %148
  %150 = getelementptr inbounds [5 x i8], [5 x i8]* %149, i64 0, i64 0
  %151 = call i32 (i8*, ...) @printf(i8* getelementptr inbounds ([4 x i8], [4 x i8]* @.str.4, i64 0, i64 0), i8* %150)
  br label %152

152:                                              ; preds = %146, %139
  br label %153

153:                                              ; preds = %152
  %154 = load i32, i32* %3, align 4
  %155 = add nsw i32 %154, 1
  store i32 %155, i32* %3, align 4
  br label %133

156:                                              ; preds = %133
  br label %157

157:                                              ; preds = %156, %127
  ret i32 0
}

; Function Attrs: argmemonly nounwind willreturn
declare void @llvm.memset.p0i8.i64(i8* nocapture writeonly, i8, i64, i1 immarg) #1

declare dso_local i32 @__isoc99_scanf(i8*, ...) #2

; Function Attrs: nounwind readonly
declare dso_local i64 @strlen(i8*) #3

; Function Attrs: nounwind readonly
declare dso_local i32 @strcmp(i8*, i8*) #3

declare dso_local i32 @printf(i8*, ...) #2


!llvm.module.flags = !{!0}
!llvm.ident = !{!1}

!0 = !{i32 1, !"wchar_size", i32 4}
!1 = !{!"clang version 10.0.0-4ubuntu1 "}
