; ModuleID = 'source-C-CXX/50/514.c'
source_filename = "source-C-CXX/50/514.c"
target datalayout = "e-m:e-p270:32:32-p271:32:32-p272:64:64-i64:64-f80:128-n8:16:32:64-S128"
target triple = "x86_64-pc-linux-gnu"

@.str = private unnamed_addr constant [3 x i8] c"%d\00", align 1
@.str.1 = private unnamed_addr constant [3 x i8] c"%s\00", align 1
@.str.2 = private unnamed_addr constant [3 x i8] c"NO\00", align 1
@.str.3 = private unnamed_addr constant [4 x i8] c"%d\0A\00", align 1

; Function Attrs: nofree nounwind sspstrong uwtable
define dso_local i32 @main() local_unnamed_addr #0 {
  %1 = alloca i32, align 4
  %2 = alloca [600 x i32], align 16
  %3 = alloca [600 x i8], align 16
  %4 = alloca [600 x [5 x i8]], align 16
  %5 = bitcast i32* %1 to i8*
  call void @llvm.lifetime.start.p0i8(i64 4, i8* nonnull %5) #8
  %6 = bitcast [600 x i32]* %2 to i8*
  call void @llvm.lifetime.start.p0i8(i64 2400, i8* nonnull %6) #8
  call void @llvm.memset.p0i8.i64(i8* noundef nonnull align 16 dereferenceable(2400) %6, i8 0, i64 2400, i1 false)
  %7 = getelementptr inbounds [600 x i8], [600 x i8]* %3, i64 0, i64 0
  call void @llvm.lifetime.start.p0i8(i64 600, i8* nonnull %7) #8
  %8 = getelementptr inbounds [600 x [5 x i8]], [600 x [5 x i8]]* %4, i64 0, i64 0, i64 0
  call void @llvm.lifetime.start.p0i8(i64 3000, i8* nonnull %8) #8
  %9 = call i32 (i8*, ...) @__isoc99_scanf(i8* getelementptr inbounds ([3 x i8], [3 x i8]* @.str, i64 0, i64 0), i32* nonnull %1)
  %10 = call i32 (i8*, ...) @__isoc99_scanf(i8* getelementptr inbounds ([3 x i8], [3 x i8]* @.str.1, i64 0, i64 0), i8* nonnull %7)
  %11 = call i64 @strlen(i8* noundef nonnull %7) #9
  %12 = trunc i64 %11 to i32
  %13 = load i32, i32* %1, align 4, !tbaa !5
  %14 = sub nsw i32 %12, %13
  %15 = sext i32 %13 to i64
  %16 = icmp slt i32 %14, 0
  br i1 %16, label %203, label %17

17:                                               ; preds = %0
  %18 = icmp sgt i32 %13, 0
  br i1 %18, label %28, label %19

19:                                               ; preds = %17
  %20 = add i32 %12, 1
  %21 = sub i32 %20, %13
  %22 = zext i32 %21 to i64
  %23 = add nsw i64 %22, -1
  %24 = and i64 %22, 3
  %25 = icmp ult i64 %23, 3
  br i1 %25, label %70, label %26

26:                                               ; preds = %19
  %27 = and i64 %22, 4294967292
  br label %50

28:                                               ; preds = %17
  %29 = zext i32 %13 to i64
  %30 = add i32 %12, 1
  %31 = sub i32 %30, %13
  %32 = zext i32 %31 to i64
  %33 = and i64 %32, 1
  %34 = icmp eq i32 %31, 1
  br i1 %34, label %63, label %35

35:                                               ; preds = %28
  %36 = and i64 %32, 4294967294
  br label %37

37:                                               ; preds = %37, %35
  %38 = phi i64 [ 0, %35 ], [ %47, %37 ]
  %39 = phi i64 [ %36, %35 ], [ %48, %37 ]
  %40 = getelementptr [600 x [5 x i8]], [600 x [5 x i8]]* %4, i64 0, i64 %38, i64 0
  %41 = getelementptr [600 x i8], [600 x i8]* %3, i64 0, i64 %38
  call void @llvm.memcpy.p0i8.p0i8.i64(i8* align 2 %40, i8* align 2 %41, i64 %29, i1 false)
  %42 = getelementptr inbounds [600 x [5 x i8]], [600 x [5 x i8]]* %4, i64 0, i64 %38, i64 %15
  store i8 0, i8* %42, align 1, !tbaa !9
  %43 = or i64 %38, 1
  %44 = getelementptr [600 x [5 x i8]], [600 x [5 x i8]]* %4, i64 0, i64 %43, i64 0
  %45 = getelementptr [600 x i8], [600 x i8]* %3, i64 0, i64 %43
  call void @llvm.memcpy.p0i8.p0i8.i64(i8* align 1 %44, i8* align 1 %45, i64 %29, i1 false)
  %46 = getelementptr inbounds [600 x [5 x i8]], [600 x [5 x i8]]* %4, i64 0, i64 %43, i64 %15
  store i8 0, i8* %46, align 1, !tbaa !9
  %47 = add nuw nsw i64 %38, 2
  %48 = add i64 %39, -2
  %49 = icmp eq i64 %48, 0
  br i1 %49, label %63, label %37, !llvm.loop !10

50:                                               ; preds = %50, %26
  %51 = phi i64 [ 0, %26 ], [ %60, %50 ]
  %52 = phi i64 [ %27, %26 ], [ %61, %50 ]
  %53 = getelementptr inbounds [600 x [5 x i8]], [600 x [5 x i8]]* %4, i64 0, i64 %51, i64 %15
  store i8 0, i8* %53, align 1, !tbaa !9
  %54 = or i64 %51, 1
  %55 = getelementptr inbounds [600 x [5 x i8]], [600 x [5 x i8]]* %4, i64 0, i64 %54, i64 %15
  store i8 0, i8* %55, align 1, !tbaa !9
  %56 = or i64 %51, 2
  %57 = getelementptr inbounds [600 x [5 x i8]], [600 x [5 x i8]]* %4, i64 0, i64 %56, i64 %15
  store i8 0, i8* %57, align 1, !tbaa !9
  %58 = or i64 %51, 3
  %59 = getelementptr inbounds [600 x [5 x i8]], [600 x [5 x i8]]* %4, i64 0, i64 %58, i64 %15
  store i8 0, i8* %59, align 1, !tbaa !9
  %60 = add nuw nsw i64 %51, 4
  %61 = add i64 %52, -4
  %62 = icmp eq i64 %61, 0
  br i1 %62, label %70, label %50, !llvm.loop !10

63:                                               ; preds = %37, %28
  %64 = phi i64 [ 0, %28 ], [ %47, %37 ]
  %65 = icmp eq i64 %33, 0
  br i1 %65, label %80, label %66

66:                                               ; preds = %63
  %67 = getelementptr [600 x [5 x i8]], [600 x [5 x i8]]* %4, i64 0, i64 %64, i64 0
  %68 = getelementptr [600 x i8], [600 x i8]* %3, i64 0, i64 %64
  call void @llvm.memcpy.p0i8.p0i8.i64(i8* align 1 %67, i8* align 1 %68, i64 %29, i1 false)
  %69 = getelementptr inbounds [600 x [5 x i8]], [600 x [5 x i8]]* %4, i64 0, i64 %64, i64 %15
  store i8 0, i8* %69, align 1, !tbaa !9
  br label %80

70:                                               ; preds = %50, %19
  %71 = phi i64 [ 0, %19 ], [ %60, %50 ]
  %72 = icmp eq i64 %24, 0
  br i1 %72, label %80, label %73

73:                                               ; preds = %70, %73
  %74 = phi i64 [ %77, %73 ], [ %71, %70 ]
  %75 = phi i64 [ %78, %73 ], [ %24, %70 ]
  %76 = getelementptr inbounds [600 x [5 x i8]], [600 x [5 x i8]]* %4, i64 0, i64 %74, i64 %15
  store i8 0, i8* %76, align 1, !tbaa !9
  %77 = add nuw nsw i64 %74, 1
  %78 = add i64 %75, -1
  %79 = icmp eq i64 %78, 0
  br i1 %79, label %80, label %73, !llvm.loop !12

80:                                               ; preds = %70, %73, %66, %63
  br i1 %16, label %203, label %81

81:                                               ; preds = %80
  %82 = zext i32 %14 to i64
  %83 = add i32 %12, 1
  %84 = sub i32 %83, %13
  %85 = zext i32 %84 to i64
  br label %89

86:                                               ; preds = %104, %89
  %87 = add nuw nsw i64 %91, 1
  %88 = icmp eq i64 %92, %85
  br i1 %88, label %108, label %89, !llvm.loop !14

89:                                               ; preds = %81, %86
  %90 = phi i64 [ 0, %81 ], [ %92, %86 ]
  %91 = phi i64 [ 1, %81 ], [ %87, %86 ]
  %92 = add nuw nsw i64 %90, 1
  %93 = getelementptr inbounds [600 x [5 x i8]], [600 x [5 x i8]]* %4, i64 0, i64 %90, i64 0
  %94 = getelementptr inbounds [600 x i32], [600 x i32]* %2, i64 0, i64 %90
  %95 = icmp ult i64 %90, %82
  br i1 %95, label %96, label %86

96:                                               ; preds = %89, %104
  %97 = phi i64 [ %105, %104 ], [ %91, %89 ]
  %98 = getelementptr inbounds [600 x [5 x i8]], [600 x [5 x i8]]* %4, i64 0, i64 %97, i64 0
  %99 = call i32 @strcmp(i8* noundef nonnull %93, i8* noundef nonnull %98) #9
  %100 = icmp eq i32 %99, 0
  br i1 %100, label %101, label %104

101:                                              ; preds = %96
  %102 = load i32, i32* %94, align 4, !tbaa !5
  %103 = add nsw i32 %102, 1
  store i32 %103, i32* %94, align 4, !tbaa !5
  br label %104

104:                                              ; preds = %96, %101
  %105 = add nuw nsw i64 %97, 1
  %106 = trunc i64 %97 to i32
  %107 = icmp sgt i32 %14, %106
  br i1 %107, label %96, label %86, !llvm.loop !15

108:                                              ; preds = %86
  %109 = getelementptr inbounds [600 x i32], [600 x i32]* %2, i64 0, i64 0
  %110 = load i32, i32* %109, align 16, !tbaa !5
  br i1 %16, label %200, label %111

111:                                              ; preds = %108
  %112 = add i32 %12, 1
  %113 = sub i32 %112, %13
  %114 = zext i32 %113 to i64
  %115 = icmp eq i32 %113, 1
  br i1 %115, label %200, label %116, !llvm.loop !16

116:                                              ; preds = %111
  %117 = add nsw i64 %114, -1
  %118 = icmp ult i64 %117, 8
  br i1 %118, label %188, label %119

119:                                              ; preds = %116
  %120 = and i64 %117, -8
  %121 = or i64 %120, 1
  %122 = insertelement <4 x i32> poison, i32 %110, i32 0
  %123 = shufflevector <4 x i32> %122, <4 x i32> poison, <4 x i32> zeroinitializer
  %124 = add nsw i64 %120, -8
  %125 = lshr exact i64 %124, 3
  %126 = add nuw nsw i64 %125, 1
  %127 = and i64 %126, 1
  %128 = icmp eq i64 %124, 0
  br i1 %128, label %163, label %129

129:                                              ; preds = %119
  %130 = and i64 %126, 4611686018427387902
  br label %131

131:                                              ; preds = %131, %129
  %132 = phi i64 [ 0, %129 ], [ %158, %131 ]
  %133 = phi <4 x i32> [ %123, %129 ], [ %156, %131 ]
  %134 = phi <4 x i32> [ %123, %129 ], [ %157, %131 ]
  %135 = phi i64 [ %130, %129 ], [ %159, %131 ]
  %136 = or i64 %132, 1
  %137 = getelementptr inbounds [600 x i32], [600 x i32]* %2, i64 0, i64 %136
  %138 = bitcast i32* %137 to <4 x i32>*
  %139 = load <4 x i32>, <4 x i32>* %138, align 4, !tbaa !5
  %140 = getelementptr inbounds i32, i32* %137, i64 4
  %141 = bitcast i32* %140 to <4 x i32>*
  %142 = load <4 x i32>, <4 x i32>* %141, align 4, !tbaa !5
  %143 = icmp sgt <4 x i32> %139, %133
  %144 = icmp sgt <4 x i32> %142, %134
  %145 = select <4 x i1> %143, <4 x i32> %139, <4 x i32> %133
  %146 = select <4 x i1> %144, <4 x i32> %142, <4 x i32> %134
  %147 = or i64 %132, 9
  %148 = getelementptr inbounds [600 x i32], [600 x i32]* %2, i64 0, i64 %147
  %149 = bitcast i32* %148 to <4 x i32>*
  %150 = load <4 x i32>, <4 x i32>* %149, align 4, !tbaa !5
  %151 = getelementptr inbounds i32, i32* %148, i64 4
  %152 = bitcast i32* %151 to <4 x i32>*
  %153 = load <4 x i32>, <4 x i32>* %152, align 4, !tbaa !5
  %154 = icmp sgt <4 x i32> %150, %145
  %155 = icmp sgt <4 x i32> %153, %146
  %156 = select <4 x i1> %154, <4 x i32> %150, <4 x i32> %145
  %157 = select <4 x i1> %155, <4 x i32> %153, <4 x i32> %146
  %158 = add nuw i64 %132, 16
  %159 = add i64 %135, -2
  %160 = icmp eq i64 %159, 0
  br i1 %160, label %161, label %131, !llvm.loop !17

161:                                              ; preds = %131
  %162 = or i64 %158, 1
  br label %163

163:                                              ; preds = %161, %119
  %164 = phi <4 x i32> [ undef, %119 ], [ %156, %161 ]
  %165 = phi <4 x i32> [ undef, %119 ], [ %157, %161 ]
  %166 = phi i64 [ 1, %119 ], [ %162, %161 ]
  %167 = phi <4 x i32> [ %123, %119 ], [ %156, %161 ]
  %168 = phi <4 x i32> [ %123, %119 ], [ %157, %161 ]
  %169 = icmp eq i64 %127, 0
  br i1 %169, label %181, label %170

170:                                              ; preds = %163
  %171 = getelementptr inbounds [600 x i32], [600 x i32]* %2, i64 0, i64 %166
  %172 = bitcast i32* %171 to <4 x i32>*
  %173 = load <4 x i32>, <4 x i32>* %172, align 4, !tbaa !5
  %174 = getelementptr inbounds i32, i32* %171, i64 4
  %175 = bitcast i32* %174 to <4 x i32>*
  %176 = load <4 x i32>, <4 x i32>* %175, align 4, !tbaa !5
  %177 = icmp sgt <4 x i32> %176, %168
  %178 = select <4 x i1> %177, <4 x i32> %176, <4 x i32> %168
  %179 = icmp sgt <4 x i32> %173, %167
  %180 = select <4 x i1> %179, <4 x i32> %173, <4 x i32> %167
  br label %181

181:                                              ; preds = %163, %170
  %182 = phi <4 x i32> [ %164, %163 ], [ %180, %170 ]
  %183 = phi <4 x i32> [ %165, %163 ], [ %178, %170 ]
  %184 = icmp sgt <4 x i32> %182, %183
  %185 = select <4 x i1> %184, <4 x i32> %182, <4 x i32> %183
  %186 = call i32 @llvm.vector.reduce.smax.v4i32(<4 x i32> %185)
  %187 = icmp eq i64 %117, %120
  br i1 %187, label %200, label %188

188:                                              ; preds = %116, %181
  %189 = phi i64 [ 1, %116 ], [ %121, %181 ]
  %190 = phi i32 [ %110, %116 ], [ %186, %181 ]
  br label %191

191:                                              ; preds = %188, %191
  %192 = phi i64 [ %198, %191 ], [ %189, %188 ]
  %193 = phi i32 [ %197, %191 ], [ %190, %188 ]
  %194 = getelementptr inbounds [600 x i32], [600 x i32]* %2, i64 0, i64 %192
  %195 = load i32, i32* %194, align 4, !tbaa !5
  %196 = icmp sgt i32 %195, %193
  %197 = select i1 %196, i32 %195, i32 %193
  %198 = add nuw nsw i64 %192, 1
  %199 = icmp eq i64 %198, %114
  br i1 %199, label %200, label %191, !llvm.loop !19

200:                                              ; preds = %191, %111, %181, %108
  %201 = phi i32 [ %110, %108 ], [ %110, %111 ], [ %186, %181 ], [ %197, %191 ]
  %202 = icmp eq i32 %201, 0
  br i1 %202, label %203, label %205

203:                                              ; preds = %80, %0, %200
  %204 = call i32 (i8*, ...) @printf(i8* nonnull dereferenceable(1) getelementptr inbounds ([3 x i8], [3 x i8]* @.str.2, i64 0, i64 0))
  br label %228

205:                                              ; preds = %200
  %206 = add nsw i32 %201, 1
  %207 = call i32 (i8*, ...) @printf(i8* nonnull dereferenceable(1) getelementptr inbounds ([4 x i8], [4 x i8]* @.str.3, i64 0, i64 0), i32 %206)
  %208 = load i32, i32* %1, align 4, !tbaa !5
  %209 = icmp sgt i32 %208, %12
  br i1 %209, label %228, label %210

210:                                              ; preds = %205, %225
  %211 = phi i32 [ %220, %225 ], [ %208, %205 ]
  %212 = phi i32 [ %227, %225 ], [ %110, %205 ]
  %213 = phi i64 [ %221, %225 ], [ 0, %205 ]
  %214 = icmp eq i32 %212, %201
  br i1 %214, label %215, label %219

215:                                              ; preds = %210
  %216 = getelementptr inbounds [600 x [5 x i8]], [600 x [5 x i8]]* %4, i64 0, i64 %213, i64 0
  %217 = call i32 @puts(i8* nonnull %216)
  %218 = load i32, i32* %1, align 4, !tbaa !5
  br label %219

219:                                              ; preds = %210, %215
  %220 = phi i32 [ %211, %210 ], [ %218, %215 ]
  %221 = add nuw nsw i64 %213, 1
  %222 = sub nsw i32 %12, %220
  %223 = sext i32 %222 to i64
  %224 = icmp slt i64 %213, %223
  br i1 %224, label %225, label %228, !llvm.loop !21

225:                                              ; preds = %219
  %226 = getelementptr inbounds [600 x i32], [600 x i32]* %2, i64 0, i64 %221
  %227 = load i32, i32* %226, align 4, !tbaa !5
  br label %210

228:                                              ; preds = %219, %205, %203
  call void @llvm.lifetime.end.p0i8(i64 3000, i8* nonnull %8) #8
  call void @llvm.lifetime.end.p0i8(i64 600, i8* nonnull %7) #8
  call void @llvm.lifetime.end.p0i8(i64 2400, i8* nonnull %6) #8
  call void @llvm.lifetime.end.p0i8(i64 4, i8* nonnull %5) #8
  ret i32 0
}

; Function Attrs: argmemonly mustprogress nofree nosync nounwind willreturn
declare void @llvm.lifetime.start.p0i8(i64 immarg, i8* nocapture) #1

; Function Attrs: argmemonly mustprogress nofree nounwind willreturn writeonly
declare void @llvm.memset.p0i8.i64(i8* nocapture writeonly, i8, i64, i1 immarg) #2

; Function Attrs: nofree nounwind
declare noundef i32 @__isoc99_scanf(i8* nocapture noundef readonly, ...) local_unnamed_addr #3

; Function Attrs: argmemonly mustprogress nofree nounwind readonly willreturn
declare i64 @strlen(i8* nocapture) local_unnamed_addr #4

; Function Attrs: argmemonly mustprogress nofree nounwind readonly willreturn
declare i32 @strcmp(i8* nocapture, i8* nocapture) local_unnamed_addr #4

; Function Attrs: nofree nounwind
declare noundef i32 @printf(i8* nocapture noundef readonly, ...) local_unnamed_addr #3

; Function Attrs: argmemonly mustprogress nofree nosync nounwind willreturn
declare void @llvm.lifetime.end.p0i8(i64 immarg, i8* nocapture) #1

; Function Attrs: nofree nounwind
declare noundef i32 @puts(i8* nocapture noundef readonly) local_unnamed_addr #5

; Function Attrs: argmemonly nofree nounwind willreturn
declare void @llvm.memcpy.p0i8.p0i8.i64(i8* noalias nocapture writeonly, i8* noalias nocapture readonly, i64, i1 immarg) #6

; Function Attrs: nofree nosync nounwind readnone willreturn
declare i32 @llvm.vector.reduce.smax.v4i32(<4 x i32>) #7


!llvm.module.flags = !{!0, !1, !2, !3}
!llvm.ident = !{!4}

!0 = !{i32 1, !"wchar_size", i32 4}
!1 = !{i32 7, !"PIC Level", i32 2}
!2 = !{i32 7, !"PIE Level", i32 2}
!3 = !{i32 7, !"uwtable", i32 1}
!4 = !{!"clang version 13.0.0"}
!5 = !{!6, !6, i64 0}
!6 = !{!"int", !7, i64 0}
!7 = !{!"omnipotent char", !8, i64 0}
!8 = !{!"Simple C/C++ TBAA"}
!9 = !{!7, !7, i64 0}
!10 = distinct !{!10, !11}
!11 = !{!"llvm.loop.mustprogress"}
!12 = distinct !{!12, !13}
!13 = !{!"llvm.loop.unroll.disable"}
!14 = distinct !{!14, !11}
!15 = distinct !{!15, !11}
!16 = distinct !{!16, !11}
!17 = distinct !{!17, !11, !18}
!18 = !{!"llvm.loop.isvectorized", i32 1}
!19 = distinct !{!19, !11, !20, !18}
!20 = !{!"llvm.loop.unroll.runtime.disable"}
!21 = distinct !{!21, !11}
